target datalayout = "e-m:e-p270:32:32-p271:32:32-p272:64:64-i64:64-i128:128-f80:128-n8:16:32:64-S128"
target triple = "x86_64-pc-linux-gnu"

; Function Attrs: nounwind uwtable
define void @Dau_DsdGenRandPerm(ptr noundef %0, i32 noundef %1) #0 {
  %3 = alloca ptr, align 8
  %4 = alloca i32, align 4
  %5 = alloca i32, align 4
  %6 = alloca i32, align 4
  %7 = alloca i32, align 4
  store ptr %0, ptr %3, align 8, !tbaa !14
  store i32 %1, ptr %4, align 4, !tbaa !8
  call void @llvm.lifetime.start.p0(i64 4, ptr %5) #9
  call void @llvm.lifetime.start.p0(i64 4, ptr %6) #9
  store i32 0, ptr %5, align 4, !tbaa !8
  br label %8

8:                                                ; preds = %18, %2
  %9 = load i32, ptr %5, align 4, !tbaa !8
  %10 = load i32, ptr %4, align 4, !tbaa !8
  %11 = icmp slt i32 %9, %10
  br i1 %11, label %12, label %21

12:                                               ; preds = %8
  %13 = load i32, ptr %5, align 4, !tbaa !8
  %14 = load ptr, ptr %3, align 8, !tbaa !14
  %15 = load i32, ptr %5, align 4, !tbaa !8
  %16 = sext i32 %15 to i64
  %17 = getelementptr inbounds i32, ptr %14, i64 %16
  store i32 %13, ptr %17, align 4, !tbaa !8
  br label %18

18:                                               ; preds = %12
  %19 = load i32, ptr %5, align 4, !tbaa !8
  %20 = add nsw i32 %19, 1
  store i32 %20, ptr %5, align 4, !tbaa !8
  br label %8, !llvm.loop !16

21:                                               ; preds = %8
  store i32 0, ptr %5, align 4, !tbaa !8
  br label %22

22:                                               ; preds = %49, %21
  %23 = load i32, ptr %5, align 4, !tbaa !8
  %24 = load i32, ptr %4, align 4, !tbaa !8
  %25 = icmp slt i32 %23, %24
  br i1 %25, label %26, label %52

26:                                               ; preds = %22
  %27 = call i32 @rand() #9
  %28 = load i32, ptr %4, align 4, !tbaa !8
  %29 = srem i32 %27, %28
  store i32 %29, ptr %6, align 4, !tbaa !8
  call void @llvm.lifetime.start.p0(i64 4, ptr %7) #9
  %30 = load ptr, ptr %3, align 8, !tbaa !14
  %31 = load i32, ptr %5, align 4, !tbaa !8
  %32 = sext i32 %31 to i64
  %33 = getelementptr inbounds i32, ptr %30, i64 %32
  %34 = load i32, ptr %33, align 4, !tbaa !8
  store i32 %34, ptr %7, align 4, !tbaa !8
  %35 = load ptr, ptr %3, align 8, !tbaa !14
  %36 = load i32, ptr %6, align 4, !tbaa !8
  %37 = sext i32 %36 to i64
  %38 = getelementptr inbounds i32, ptr %35, i64 %37
  %39 = load i32, ptr %38, align 4, !tbaa !8
  %40 = load ptr, ptr %3, align 8, !tbaa !14
  %41 = load i32, ptr %5, align 4, !tbaa !8
  %42 = sext i32 %41 to i64
  %43 = getelementptr inbounds i32, ptr %40, i64 %42
  store i32 %39, ptr %43, align 4, !tbaa !8
  %44 = load i32, ptr %7, align 4, !tbaa !8
  %45 = load ptr, ptr %3, align 8, !tbaa !14
  %46 = load i32, ptr %6, align 4, !tbaa !8
  %47 = sext i32 %46 to i64
  %48 = getelementptr inbounds i32, ptr %45, i64 %47
  store i32 %44, ptr %48, align 4, !tbaa !8
  call void @llvm.lifetime.end.p0(i64 4, ptr %7) #9
  br label %49

49:                                               ; preds = %26
  %50 = load i32, ptr %5, align 4, !tbaa !8
  %51 = add nsw i32 %50, 1
  store i32 %51, ptr %5, align 4, !tbaa !8
  br label %22, !llvm.loop !17

52:                                               ; preds = %22
  call void @llvm.lifetime.end.p0(i64 4, ptr %6) #9
  call void @llvm.lifetime.end.p0(i64 4, ptr %5) #9
  ret void
}