; Function Attrs: nounwind uwtable
define void @Dau_DsdGenRandPerm(ptr noundef captures(none) %0, i32 noundef %1) local_unnamed_addr #3 {
  %3 = icmp sgt i32 %1, 0
  br i1 %3, label %.lr.ph.preheader, label %._crit_edge

.lr.ph.preheader:                                 ; preds = %2
  %wide.trip.count = zext nneg i32 %1 to i64
  br label %.lr.ph

.lr.ph21.preheader:                               ; preds = %.lr.ph
  %wide.trip.count26 = zext nneg i32 %1 to i64
  br label %.lr.ph21

.lr.ph:                                           ; preds = %.lr.ph.preheader, %.lr.ph
  %indvars.iv = phi i64 [ 0, %.lr.ph.preheader ], [ %indvars.iv.next, %.lr.ph ]
  %4 = getelementptr inbounds nuw i32, ptr %0, i64 %indvars.iv
  %5 = trunc nuw nsw i64 %indvars.iv to i32
  store i32 %5, ptr %4, align 4, !tbaa !6
  %indvars.iv.next = add nuw nsw i64 %indvars.iv, 1
  %exitcond.not = icmp eq i64 %indvars.iv.next, %wide.trip.count
  br i1 %exitcond.not, label %.lr.ph21.preheader, label %.lr.ph, !llvm.loop !11

.lr.ph21:                                         ; preds = %.lr.ph21.preheader, %.lr.ph21
  %indvars.iv23 = phi i64 [ 0, %.lr.ph21.preheader ], [ %indvars.iv.next24, %.lr.ph21 ]
  %6 = tail call i32 @rand() #29
  %7 = srem i32 %6, %1
  %8 = getelementptr inbounds nuw i32, ptr %0, i64 %indvars.iv23
  %9 = load i32, ptr %8, align 4, !tbaa !6
  %10 = sext i32 %7 to i64
  %11 = getelementptr inbounds i32, ptr %0, i64 %10
  %12 = load i32, ptr %11, align 4, !tbaa !6
  store i32 %12, ptr %8, align 4, !tbaa !6
  store i32 %9, ptr %11, align 4, !tbaa !6
  %indvars.iv.next24 = add nuw nsw i64 %indvars.iv23, 1
  %exitcond27.not = icmp eq i64 %indvars.iv.next24, %wide.trip.count26
  br i1 %exitcond27.not, label %._crit_edge, label %.lr.ph21, !llvm.loop !12

._crit_edge:                                      ; preds = %.lr.ph21, %2
  ret void
}